target datalayout = "e-m:e-p270:32:32-p271:32:32-p272:64:64-i64:64-i128:128-f80:128-n8:16:32:64-S128"
target triple = "x86_64-pc-linux-gnu"

%struct.AVChannelLayout = type { i32, i32, %union.anon, ptr }
%union.anon = type { i64 }
%struct.AVStream = type { ptr, i32, i32, ptr, ptr, %struct.AVRational, i64, i64, i64, i32, i32, %struct.AVRational, ptr, %struct.AVRational, %struct.AVPacket, i32, %struct.AVRational, i32 }
%struct.AVPacket = type { ptr, i64, i64, ptr, i32, i32, i32, ptr, i32, i64, i64, ptr, ptr, %struct.AVRational }
%struct.AVRational = type { i32, i32 }
%struct.AVCodecParameters = type { i32, i32, i32, ptr, i32, ptr, i32, i32, i64, i32, i32, i32, i32, i32, i32, %struct.AVRational, %struct.AVRational, i32, i32, i32, i32, i32, i32, i32, %struct.AVChannelLayout, i32, i32, i32, i32, i32, i32 }
%struct.AVFormatContext = type { ptr, ptr, ptr, ptr, ptr, i32, i32, ptr, i32, ptr, i32, ptr, ptr, i64, i64, i64, i32, i32, i32, i64, i64, ptr, i32, i32, ptr, i32, i32, i32, i32, ptr, i64, i32, i32, %struct.AVIOInterruptCB, i32, i32, i32, i32, i64, i32, i32, i32, i32, i32, i32, i32, i32, i32, i32, i32, i32, i64, i32, i32, i32, i32, i32, ptr, ptr, ptr, ptr, i32, ptr, ptr, ptr, ptr, i32, ptr, ptr, i64, ptr, ptr, ptr, i64 }
%struct.AVIOInterruptCB = type { ptr, ptr }
%struct.ArgoASFMuxContext = type { ptr, i32, i32, ptr, i64 }
%struct.AVIOContext = type { ptr, ptr, i32, ptr, ptr, ptr, ptr, ptr, ptr, i64, i32, i32, i32, i32, i32, i64, ptr, ptr, ptr, ptr, i32, i32, ptr, ptr, ptr, i32, ptr, i64, i64 }

@.str.15 = private unnamed_addr constant [52 x i8] c"ASF v1.1 files only support a sample rate of 22050\0A\00", align 1
@.str.16 = private unnamed_addr constant [41 x i8] c"ASF files only support up to 2 channels\0A\00", align 1
@.str.17 = private unnamed_addr constant [23 x i8] c"Sample rate too large\0A\00", align 1
@.str.18 = private unnamed_addr constant [50 x i8] c"Stream not seekable, unable to write output file\0A\00", align 1

; Function Attrs: nounwind uwtable
define internal i32 @argo_asf_write_init(ptr noundef %0) #0 {
  %2 = alloca i32, align 4
  %3 = alloca ptr, align 8
  %4 = alloca ptr, align 8
  %5 = alloca ptr, align 8
  %6 = alloca i32, align 4
  store ptr %0, ptr %3, align 8, !tbaa !20
  call void @llvm.lifetime.start.p0(i64 8, ptr %4) #6
  %7 = load ptr, ptr %3, align 8, !tbaa !20
  %8 = getelementptr inbounds nuw %struct.AVFormatContext, ptr %7, i32 0, i32 3
  %9 = load ptr, ptr %8, align 8, !tbaa !79
  store ptr %9, ptr %4, align 8, !tbaa !98
  call void @llvm.lifetime.start.p0(i64 8, ptr %5) #6
  %10 = load ptr, ptr %3, align 8, !tbaa !20
  %11 = getelementptr inbounds nuw %struct.AVFormatContext, ptr %10, i32 0, i32 7
  %12 = load ptr, ptr %11, align 8, !tbaa !88
  %13 = getelementptr inbounds ptr, ptr %12, i64 0
  %14 = load ptr, ptr %13, align 8, !tbaa !31
  %15 = getelementptr inbounds nuw %struct.AVStream, ptr %14, i32 0, i32 3
  %16 = load ptr, ptr %15, align 8, !tbaa !33
  store ptr %16, ptr %5, align 8, !tbaa !97
  %17 = load ptr, ptr %4, align 8, !tbaa !98
  %18 = getelementptr inbounds nuw %struct.ArgoASFMuxContext, ptr %17, i32 0, i32 1
  %19 = load i32, ptr %18, align 8, !tbaa !100
  %20 = icmp eq i32 %19, 1
  br i1 %20, label %21, label %33

21:                                               ; preds = %1
  %22 = load ptr, ptr %4, align 8, !tbaa !98
  %23 = getelementptr inbounds nuw %struct.ArgoASFMuxContext, ptr %22, i32 0, i32 2
  %24 = load i32, ptr %23, align 4, !tbaa !102
  %25 = icmp eq i32 %24, 1
  br i1 %25, label %26, label %33

26:                                               ; preds = %21
  %27 = load ptr, ptr %5, align 8, !tbaa !97
  %28 = getelementptr inbounds nuw %struct.AVCodecParameters, ptr %27, i32 0, i32 25
  %29 = load i32, ptr %28, align 8, !tbaa !54
  %30 = icmp ne i32 %29, 22050
  br i1 %30, label %31, label %33

31:                                               ; preds = %26
  %32 = load ptr, ptr %3, align 8, !tbaa !20
  call void (ptr, i32, ptr, ...) @av_log(ptr noundef %32, i32 noundef 16, ptr noundef @.str.15)
  store i32 -22, ptr %2, align 4
  store i32 1, ptr %6, align 4
  br label %70

33:                                               ; preds = %26, %21, %1
  %34 = load ptr, ptr %5, align 8, !tbaa !97
  %35 = getelementptr inbounds nuw %struct.AVCodecParameters, ptr %34, i32 0, i32 24
  %36 = getelementptr inbounds nuw %struct.AVChannelLayout, ptr %35, i32 0, i32 1
  %37 = load i32, ptr %36, align 4, !tbaa !56
  %38 = icmp sgt i32 %37, 2
  br i1 %38, label %39, label %41

39:                                               ; preds = %33
  %40 = load ptr, ptr %3, align 8, !tbaa !20
  call void (ptr, i32, ptr, ...) @av_log(ptr noundef %40, i32 noundef 16, ptr noundef @.str.16)
  store i32 -22, ptr %2, align 4
  store i32 1, ptr %6, align 4
  br label %70

41:                                               ; preds = %33
  %42 = load ptr, ptr %5, align 8, !tbaa !97
  %43 = getelementptr inbounds nuw %struct.AVCodecParameters, ptr %42, i32 0, i32 26
  %44 = load i32, ptr %43, align 4, !tbaa !57
  %45 = load ptr, ptr %5, align 8, !tbaa !97
  %46 = getelementptr inbounds nuw %struct.AVCodecParameters, ptr %45, i32 0, i32 24
  %47 = getelementptr inbounds nuw %struct.AVChannelLayout, ptr %46, i32 0, i32 1
  %48 = load i32, ptr %47, align 4, !tbaa !56
  %49 = mul nsw i32 17, %48
  %50 = icmp ne i32 %44, %49
  br i1 %50, label %51, label %52

51:                                               ; preds = %41
  store i32 -22, ptr %2, align 4
  store i32 1, ptr %6, align 4
  br label %70

52:                                               ; preds = %41
  %53 = load ptr, ptr %5, align 8, !tbaa !97
  %54 = getelementptr inbounds nuw %struct.AVCodecParameters, ptr %53, i32 0, i32 25
  %55 = load i32, ptr %54, align 8, !tbaa !54
  %56 = icmp sgt i32 %55, 65535
  br i1 %56, label %57, label %59

57:                                               ; preds = %52
  %58 = load ptr, ptr %3, align 8, !tbaa !20
  call void (ptr, i32, ptr, ...) @av_log(ptr noundef %58, i32 noundef 16, ptr noundef @.str.17)
  store i32 -22, ptr %2, align 4
  store i32 1, ptr %6, align 4
  br label %70

59:                                               ; preds = %52
  %60 = load ptr, ptr %3, align 8, !tbaa !20
  %61 = getelementptr inbounds nuw %struct.AVFormatContext, ptr %60, i32 0, i32 4
  %62 = load ptr, ptr %61, align 8, !tbaa !66
  %63 = getelementptr inbounds nuw %struct.AVIOContext, ptr %62, i32 0, i32 20
  %64 = load i32, ptr %63, align 8, !tbaa !113
  %65 = and i32 %64, 1
  %66 = icmp ne i32 %65, 0
  br i1 %66, label %69, label %67

67:                                               ; preds = %59
  %68 = load ptr, ptr %3, align 8, !tbaa !20
  call void (ptr, i32, ptr, ...) @av_log(ptr noundef %68, i32 noundef 16, ptr noundef @.str.18)
  store i32 -22, ptr %2, align 4
  store i32 1, ptr %6, align 4
  br label %70

69:                                               ; preds = %59
  store i32 0, ptr %2, align 4
  store i32 1, ptr %6, align 4
  br label %70

70:                                               ; preds = %69, %67, %57, %51, %39, %31
  call void @llvm.lifetime.end.p0(i64 8, ptr %5) #6
  call void @llvm.lifetime.end.p0(i64 8, ptr %4) #6
  %71 = load i32, ptr %2, align 4
  ret i32 %71
}