; Function Attrs: nounwind uwtable
define internal range(i32 -22, 1) i32 @argo_asf_write_init(ptr noundef %0) #3 {
  %2 = getelementptr inbounds nuw i8, ptr %0, i64 24
  %3 = load ptr, ptr %2, align 8, !tbaa !63
  %4 = getelementptr inbounds nuw i8, ptr %0, i64 48
  %5 = load ptr, ptr %4, align 8, !tbaa !64
  %6 = load ptr, ptr %5, align 8, !tbaa !65
  %7 = getelementptr inbounds nuw i8, ptr %6, i64 16
  %8 = load ptr, ptr %7, align 8, !tbaa !22
  %9 = getelementptr inbounds nuw i8, ptr %3, i64 8
  %10 = load i32, ptr %9, align 8, !tbaa !77
  %11 = icmp eq i32 %10, 1
  br i1 %11, label %12, label %19

12:                                               ; preds = %1
  %13 = getelementptr inbounds nuw i8, ptr %3, i64 12
  %14 = load i32, ptr %13, align 4, !tbaa !79
  %15 = icmp eq i32 %14, 1
  br i1 %15, label %16, label %19

16:                                               ; preds = %12
  %17 = getelementptr inbounds nuw i8, ptr %8, i64 152
  %18 = load i32, ptr %17, align 8, !tbaa !41
  %.not = icmp eq i32 %18, 22050
  br i1 %.not, label %19, label %.sink.split

19:                                               ; preds = %16, %12, %1
  %20 = getelementptr inbounds nuw i8, ptr %8, i64 132
  %21 = load i32, ptr %20, align 4, !tbaa !43
  %22 = icmp sgt i32 %21, 2
  br i1 %22, label %.sink.split, label %23

23:                                               ; preds = %19
  %24 = getelementptr inbounds nuw i8, ptr %8, i64 156
  %25 = load i32, ptr %24, align 4, !tbaa !44
  %26 = mul nsw i32 %21, 17
  %.not15 = icmp eq i32 %25, %26
  br i1 %.not15, label %27, label %37

27:                                               ; preds = %23
  %28 = getelementptr inbounds nuw i8, ptr %8, i64 152
  %29 = load i32, ptr %28, align 8, !tbaa !41
  %30 = icmp sgt i32 %29, 65535
  br i1 %30, label %.sink.split, label %31

31:                                               ; preds = %27
  %32 = getelementptr inbounds nuw i8, ptr %0, i64 32
  %33 = load ptr, ptr %32, align 8, !tbaa !51
  %34 = getelementptr inbounds nuw i8, ptr %33, i64 144
  %35 = load i32, ptr %34, align 8, !tbaa !88
  %36 = and i32 %35, 1
  %.not16 = icmp eq i32 %36, 0
  br i1 %.not16, label %.sink.split, label %37

.sink.split:                                      ; preds = %31, %27, %19, %16
  %.str.18.sink = phi ptr [ @.str.15, %16 ], [ @.str.16, %19 ], [ @.str.17, %27 ], [ @.str.18, %31 ]
  tail call void (ptr, i32, ptr, ...) @av_log(ptr noundef nonnull %0, i32 noundef 16, ptr noundef nonnull %.str.18.sink) #10
  br label %37

37:                                               ; preds = %.sink.split, %31, %23
  %.0 = phi i32 [ -22, %23 ], [ 0, %31 ], [ -22, %.sink.split ]
  ret i32 %.0
}